(lp1
(I880
I2143
tp2
a(I2208
I3455
tp3
a(I4256
I5023
tp4
a(I5760
I6015
tp5
a(I6144
I6319
tp6
a(I7040
I7103
tp7
a(I7248
I7295
tp8
a(I7360
I7423
tp9
a(I7936
I8191
tp10
a(I11264
I11359
tp11
a(I11392
I11775
tp12
a(I11904
I12255
tp13
a(I12272
I42191
tp14
a(I42240
I42751
tp15
a(I43008
I43071
tp16
a(I43136
I43263
tp17
a(I43360
I43391
tp18
a(I43744
I43823
tp19
a(I43968
I55295
tp20
a(I63744
I64255
tp21
a(I64336
I65023
tp22
a(I65072
I65103
tp23
a(I65136
I65279
tp24
a.