(dp1
S'cjk'
p2
(lp3
(I4352
I4607
tp4
a(I11904
I12255
tp5
a(I12272
I42191
tp6
a(I43360
I43391
tp7
a(I44032
I55295
tp8
a(I63744
I64255
tp9
a(I65072
I65103
tp10
asS'slavic'
p11
(lp12
(I880
I1423
tp13
a(I4256
I4351
tp14
a(I7936
I8191
tp15
a(I11264
I11359
tp16
a(I11392
I11567
tp17
a(I11744
I11775
tp18
a(I42560
I42655
tp19
asS's_asian'
p20
(lp21
(I3456
I4255
tp22
a(I6016
I6143
tp23
a(I6400
I6831
tp24
a(I6912
I7039
tp25
a(I7104
I7247
tp26
a(I42192
I42239
tp27
a(I43072
I43135
tp28
a(I43264
I43359
tp29
a(I43392
I43487
tp30
a(I43520
I43743
tp31
asS'eng'
p32
(lp33
(I0
I591
tp34
a(I7680
I7935
tp35
a(I11360
I11391
tp36
a(I42784
I43007
tp37
a(I64256
I64335
tp38
asS'pacific'
p39
(lp40
(I5888
I6015
tp41
asS'indian'
p42
(lp43
(I2304
I3455
tp44
a(I7248
I7295
tp45
a(I7376
I7423
tp46
a(I43008
I43071
tp47
a(I43136
I43263
tp48
a(I43744
I43775
tp49
a(I43968
I44031
tp50
asS'african'
p51
(lp52
(I1984
I2047
tp53
a(I4608
I5023
tp54
a(I7040
I7103
tp55
a(I7360
I7375
tp56
a(I11648
I11743
tp57
a(I42240
I42559
tp58
a(I42656
I42751
tp59
a(I43776
I43823
tp60
asS'semitic'
p61
(lp62
(I1424
I1983
tp63
a(I2048
I2143
tp64
a(I2208
I2303
tp65
a(I11568
I11647
tp66
a(I64336
I65023
tp67
a(I65136
I65279
tp68
as.