ccollections
defaultdict
p1
(c__builtin__
dict
p2
tRp3
S'by_name'
p4
(dp5
S'Tai Xuan Jing Symbols'
p6
(S'1D300'
p7
S'1D35F'
p8
tp9
sS'Thaana'
p10
(S'0780'
p11
S'07BF'
p12
tp13
sS'Arabic Mathematical Alphabetic Symbols'
p14
(S'1EE00'
p15
S'1EEFF'
p16
tp17
sS'High Private Use Surrogates'
p18
(S'DB80'
p19
S'DBFF'
p20
tp21
sS'Telugu'
p22
(S'0C00'
p23
S'0C7F'
p24
tp25
sS'Cyrillic'
p26
(S'0400'
p27
S'04FF'
p28
tp29
sS'Optical Character Recognition'
p30
(S'2440'
p31
S'245F'
p32
tp33
sS'Meetei Mayek'
p34
(S'ABC0'
p35
S'ABFF'
p36
tp37
sS'Sundanese Supplement'
p38
(S'1CC0'
p39
S'1CCF'
p40
tp41
sS'Variation Selectors Supplement'
p42
(S'E0100'
p43
S'E01EF'
p44
tp45
sS'Latin Extended Additional'
p46
(S'1E00'
p47
S'1EFF'
p48
tp49
sS'CJK Compatibility Ideographs'
p50
(S'F900'
p51
S'FAFF'
p52
tp53
sS'Ethiopic'
p54
(S'1200'
p55
S'137F'
p56
tp57
sS'Control Pictures'
p58
(S'2400'
p59
S'243F'
p60
tp61
sS'Aegean Numbers'
p62
(S'10100'
p63
S'1013F'
p64
tp65
sS'Meroitic Cursive'
p66
(S'109A0'
p67
S'109FF'
p68
tp69
sS'Byzantine Musical Symbols'
p70
(S'1D000'
p71
S'1D0FF'
p72
tp73
sS'Cham'
p74
(S'AA00'
p75
S'AA5F'
p76
tp77
sS'Miscellaneous Symbols And Pictographs'
p78
(S'1F300'
p79
S'1F5FF'
p80
tp81
sS'Miscellaneous Symbols'
p82
(S'2600'
p83
S'26FF'
p84
tp85
sS'CJK Compatibility Ideographs Supplement'
p86
(S'2F800'
p87
S'2FA1F'
p88
tp89
sS'Tai Le'
p90
(S'1950'
p91
S'197F'
p92
tp93
sS'CJK Compatibility'
p94
(S'3300'
p95
S'33FF'
p96
tp97
sS'Meetei Mayek Extensions'
p98
(S'AAE0'
p99
S'AAFF'
p100
tp101
sS'Greek and Coptic'
p102
(S'0370'
p103
S'03FF'
p104
tp105
sS'Inscriptional Parthian'
p106
(S'10B40'
p107
S'10B5F'
p108
tp109
sS'Ethiopic Extended'
p110
(S'2D80'
p111
S'2DDF'
p112
tp113
sS'Georgian Supplement'
p114
(S'2D00'
p115
S'2D2F'
p116
tp117
sS'Armenian'
p118
(S'0530'
p119
S'058F'
p120
tp121
sS'Khmer Symbols'
p122
(S'19E0'
p123
S'19FF'
p124
tp125
sS'Ancient Greek Musical Notation'
p126
(S'1D200'
p127
S'1D24F'
p128
tp129
sS'Combining Diacritical Marks Supplement'
p130
(S'1DC0'
p131
S'1DFF'
p132
tp133
sS'Miao'
p134
(S'16F00'
p135
S'16F9F'
p136
tp137
sS'Bopomofo'
p138
(S'3100'
p139
S'312F'
p140
tp141
sS'Braille Patterns'
p142
(S'2800'
p143
S'28FF'
p144
tp145
sS'Musical Symbols'
p146
(S'1D100'
p147
S'1D1FF'
p148
tp149
sS'Ideographic Description Characters'
p150
(S'2FF0'
p151
S'2FFF'
p152
tp153
sS'Arabic Extended-A'
p154
(S'08A0'
p155
S'08FF'
p156
tp157
sS'Sundanese'
p158
(S'1B80'
p159
S'1BBF'
p160
tp161
sS'Unified Canadian Aboriginal Syllabics Extended'
p162
(S'18B0'
p163
S'18FF'
p164
tp165
sS'Bamum Supplement'
p166
(S'16800'
p167
S'16A3F'
p168
tp169
sS'Spacing Modifier Letters'
p170
(S'02B0'
p171
S'02FF'
p172
tp173
sS'Enclosed Ideographic Supplement'
p174
(S'1F200'
p175
S'1F2FF'
p176
tp177
sS'CJK Compatibility Forms'
p178
(S'FE30'
p179
S'FE4F'
p180
tp181
sS'Tagalog'
p182
(S'1700'
p183
S'171F'
p184
tp185
sS'Ethiopic Extended-A'
p186
(S'AB00'
p187
S'AB2F'
p188
tp189
sS'Malayalam'
p190
(S'0D00'
p191
S'0D7F'
p192
tp193
sS'Vedic Extensions'
p194
(S'1CD0'
p195
S'1CFF'
p196
tp197
sS'Old Italic'
p198
(S'10300'
p199
S'1032F'
p200
tp201
sS'Mahjong Tiles'
p202
(S'1F000'
p203
S'1F02F'
p204
tp205
sS'Lydian'
p206
(S'10920'
p207
S'1093F'
p208
tp209
sS'Carian'
p210
(S'102A0'
p211
S'102DF'
p212
tp213
sS'Buhid'
p214
(S'1740'
p215
S'175F'
p216
tp217
sS'Hiragana'
p218
(S'3040'
p219
S'309F'
p220
tp221
sS'Tagbanwa'
p222
(S'1760'
p223
S'177F'
p224
tp225
sS'Katakana Phonetic Extensions'
p226
(S'31F0'
p227
S'31FF'
p228
tp229
sS'Meroitic Hieroglyphs'
p230
(S'10980'
p231
S'1099F'
p232
tp233
sS'CJK Symbols and Punctuation'
p234
(S'3000'
p235
S'303F'
p236
tp237
sS'Cyrillic Extended-B'
p238
(S'A640'
p239
S'A69F'
p240
tp241
sS'Cyrillic Extended-A'
p242
(S'2DE0'
p243
S'2DFF'
p244
tp245
sS'Old South Arabian'
p246
(S'10A60'
p247
S'10A7F'
p248
tp249
sS'Phaistos Disc'
p250
(S'101D0'
p251
S'101FF'
p252
tp253
sS'Yi Syllables'
p254
(S'A000'
p255
S'A48F'
p256
tp257
sS'Kana Supplement'
p258
(S'1B000'
p259
S'1B0FF'
p260
tp261
sS'Emoticons'
p262
(S'1F600'
p263
S'1F64F'
p264
tp265
sS'Devanagari Extended'
p266
(S'A8E0'
p267
S'A8FF'
p268
tp269
sS'Domino Tiles'
p270
(S'1F030'
p271
S'1F09F'
p272
tp273
sS'CJK Unified Ideographs Extension A'
p274
(S'3400'
p275
S'4DBF'
p276
tp277
sS'CJK Unified Ideographs Extension C'
p278
(S'2A700'
p279
S'2B73F'
p280
tp281
sS'CJK Unified Ideographs Extension B'
p282
(S'20000'
p283
S'2A6DF'
p284
tp285
sS'CJK Unified Ideographs'
p286
(S'4E00'
p287
S'9FFF'
p288
tp289
sS'Enclosed CJK Letters and Months'
p290
(S'3200'
p291
S'32FF'
p292
tp293
sS'Enclosed Alphanumerics'
p294
(S'2460'
p295
S'24FF'
p296
tp297
sS'Buginese'
p298
(S'1A00'
p299
S'1A1F'
p300
tp301
sS'Kharoshthi'
p302
(S'10A00'
p303
S'10A5F'
p304
tp305
sS'Miscellaneous Technical'
p306
(S'2300'
p307
S'23FF'
p308
tp309
sS'Cyrillic Supplement'
p310
(S'0500'
p311
S'052F'
p312
tp313
sS'Cypriot Syllabary'
p314
(S'10800'
p315
S'1083F'
p316
tp317
sS'Superscripts and Subscripts'
p318
(S'2070'
p319
S'209F'
p320
tp321
sS'Saurashtra'
p322
(S'A880'
p323
S'A8DF'
p324
tp325
sS'Syloti Nagri'
p326
(S'A800'
p327
S'A82F'
p328
tp329
sS'Georgian'
p330
(S'10A0'
p331
S'10FF'
p332
tp333
sS'Latin Extended-B'
p334
(S'0180'
p335
S'024F'
p336
tp337
sS'Latin Extended-C'
p338
(S'2C60'
p339
S'2C7F'
p340
tp341
sS'Latin Extended-A'
p342
(S'0100'
p343
S'017F'
p344
tp345
sS'Arabic Supplement'
p346
(S'0750'
p347
S'077F'
p348
tp349
sS'Egyptian Hieroglyphs'
p350
(S'13000'
p351
S'1342F'
p352
tp353
sS'Latin Extended-D'
p354
(S'A720'
p355
S'A7FF'
p356
tp357
sS'Devanagari'
p358
(S'0900'
p359
S'097F'
p360
tp361
sS'Thai'
p362
(S'0E00'
p363
S'0E7F'
p364
tp365
sS'Modifier Tone Letters'
p366
(S'A700'
p367
S'A71F'
p368
tp369
sS'Tibetan'
p370
(S'0F00'
p371
S'0FFF'
p372
tp373
sS'Phonetic Extensions Supplement'
p374
(S'1D80'
p375
S'1DBF'
p376
tp377
sS'Ethiopic Supplement'
p378
(S'1380'
p379
S'139F'
p380
tp381
sS'Tifinagh'
p382
(S'2D30'
p383
S'2D7F'
p384
tp385
sS'Ugaritic'
p386
(S'10380'
p387
S'1039F'
p388
tp389
sS'Latin-1 Supplement'
p390
(S'0080'
p391
S'00FF'
p392
tp393
sS'Batak'
p394
(S'1BC0'
p395
S'1BFF'
p396
tp397
sS'Ancient Symbols'
p398
(S'10190'
p399
S'101CF'
p400
tp401
sS'IPA Extensions'
p402
(S'0250'
p403
S'02AF'
p404
tp405
sS'Supplementary Private Use Area-B'
p406
(S'100000'
p407
S'10FFFF'
p408
tp409
sS'High Surrogates'
p410
(S'D800'
p411
S'DB7F'
p412
tp413
sS'Combining Half Marks'
p414
(S'FE20'
p415
S'FE2F'
p416
tp417
sS'CJK Strokes'
p418
(S'31C0'
p419
S'31EF'
p420
tp421
sS'Geometric Shapes'
p422
(S'25A0'
p423
S'25FF'
p424
tp425
sS'Block Elements'
p426
(S'2580'
p427
S'259F'
p428
tp429
sS'Letterlike Symbols'
p430
(S'2100'
p431
S'214F'
p432
tp433
sS'Ol Chiki'
p434
(S'1C50'
p435
S'1C7F'
p436
tp437
sS'Vai'
p438
(S'A500'
p439
S'A63F'
p440
tp441
sS'Ogham'
p442
(S'1680'
p443
S'169F'
p444
tp445
sS'Combining Diacritical Marks for Symbols'
p446
(S'20D0'
p447
S'20FF'
p448
tp449
sS'Basic Latin'
p450
(S'0000'
p451
S'007F'
p452
tp453
sS'Counting Rod Numerals'
p454
(S'1D360'
p455
S'1D37F'
p456
tp457
sS'Unified Canadian Aboriginal Syllabics'
p458
(S'1400'
p459
S'167F'
p460
tp461
sS'Lycian'
p462
(S'10280'
p463
S'1029F'
p464
tp465
sS'Tai Viet'
p466
(S'AA80'
p467
S'AADF'
p468
tp469
sS'Sinhala'
p470
(S'0D80'
p471
S'0DFF'
p472
tp473
sS'Syriac'
p474
(S'0700'
p475
S'074F'
p476
tp477
sS'Runic'
p478
(S'16A0'
p479
S'16FF'
p480
tp481
sS'Gothic'
p482
(S'10330'
p483
S'1034F'
p484
tp485
sS'Box Drawing'
p486
(S'2500'
p487
S'257F'
p488
tp489
sS'Arabic'
p490
(S'0600'
p491
S'06FF'
p492
tp493
sS'Osmanya'
p494
(S'10480'
p495
S'104AF'
p496
tp497
sS'Kangxi Radicals'
p498
(S'2F00'
p499
S'2FDF'
p500
tp501
sS'CJK Radicals Supplement'
p502
(S'2E80'
p503
S'2EFF'
p504
tp505
sS'Limbu'
p506
(S'1900'
p507
S'194F'
p508
tp509
sS'Cherokee'
p510
(S'13A0'
p511
S'13FF'
p512
tp513
sS'Linear B Syllabary'
p514
(S'10000'
p515
S'1007F'
p516
tp517
sS'Oriya'
p518
(S'0B00'
p519
S'0B7F'
p520
tp521
sS'Number Forms'
p522
(S'2150'
p523
S'218F'
p524
tp525
sS'Sharada'
p526
(S'11180'
p527
S'111DF'
p528
tp529
sS'Gujarati'
p530
(S'0A80'
p531
S'0AFF'
p532
tp533
sS'Hangul Jamo Extended-A'
p534
(S'A960'
p535
S'A97F'
p536
tp537
sS'Arabic Presentation Forms-A'
p538
(S'FB50'
p539
S'FDFF'
p540
tp541
sS'Arabic Presentation Forms-B'
p542
(S'FE70'
p543
S'FEFF'
p544
tp545
sS'Mathematical Alphanumeric Symbols'
p546
(S'1D400'
p547
S'1D7FF'
p548
tp549
sS'Yijing Hexagram Symbols'
p550
(S'4DC0'
p551
S'4DFF'
p552
tp553
sS'Khmer'
p554
(S'1780'
p555
S'17FF'
p556
tp557
sS'Cuneiform'
p558
(S'12000'
p559
S'123FF'
p560
tp561
sS'Tags'
p562
(S'E0000'
p563
S'E007F'
p564
tp565
sS'Mandaic'
p566
(S'0840'
p567
S'085F'
p568
tp569
sS'Common Indic Number Forms'
p570
(S'A830'
p571
S'A83F'
p572
tp573
sS'Vertical Forms'
p574
(S'FE10'
p575
S'FE1F'
p576
tp577
sS'Enclosed Alphanumeric Supplement'
p578
(S'1F100'
p579
S'1F1FF'
p580
tp581
sS'Phoenician'
p582
(S'10900'
p583
S'1091F'
p584
tp585
sS'Bengali'
p586
(S'0980'
p587
S'09FF'
p588
tp589
sS'Kaithi'
p590
(S'11080'
p591
S'110CF'
p592
tp593
sS'Imperial Aramaic'
p594
(S'10840'
p595
S'1085F'
p596
tp597
sS'Glagolitic'
p598
(S'2C00'
p599
S'2C5F'
p600
tp601
sS'Kanbun'
p602
(S'3190'
p603
S'319F'
p604
tp605
sS'Hangul Compatibility Jamo'
p606
(S'3130'
p607
S'318F'
p608
tp609
sS'Supplementary Private Use Area-A'
p610
(S'F0000'
p611
S'FFFFF'
p612
tp613
sS'Bopomofo Extended'
p614
(S'31A0'
p615
S'31BF'
p616
tp617
sS'CJK Unified Ideographs Extension D'
p618
(S'2B740'
p619
S'2B81F'
p620
tp621
sS'Greek Extended'
p622
(S'1F00'
p623
S'1FFF'
p624
tp625
sS'Hangul Syllables'
p626
(S'AC00'
p627
S'D7AF'
p628
tp629
sS'Gurmukhi'
p630
(S'0A00'
p631
S'0A7F'
p632
tp633
sS'Javanese'
p634
(S'A980'
p635
S'A9DF'
p636
tp637
sS'Alchemical Symbols'
p638
(S'1F700'
p639
S'1F77F'
p640
tp641
sS'Specials'
p642
(S'FFF0'
p643
S'FFFF'
p644
tp645
sS'Old Persian'
p646
(S'103A0'
p647
S'103DF'
p648
tp649
sS'Ancient Greek Numbers'
p650
(S'10140'
p651
S'1018F'
p652
tp653
sS'Tamil'
p654
(S'0B80'
p655
S'0BFF'
p656
tp657
sS'Playing Cards'
p658
(S'1F0A0'
p659
S'1F0FF'
p660
tp661
sS'Kannada'
p662
(S'0C80'
p663
S'0CFF'
p664
tp665
sS'Rumi Numeral Symbols'
p666
(S'10E60'
p667
S'10E7F'
p668
tp669
sS'Supplemental Punctuation'
p670
(S'2E00'
p671
S'2E7F'
p672
tp673
sS'Mongolian'
p674
(S'1800'
p675
S'18AF'
p676
tp677
sS'Old Turkic'
p678
(S'10C00'
p679
S'10C4F'
p680
tp681
sS'Phonetic Extensions'
p682
(S'1D00'
p683
S'1D7F'
p684
tp685
sS'Brahmi'
p686
(S'11000'
p687
S'1107F'
p688
tp689
sS'Myanmar Extended-A'
p690
(S'AA60'
p691
S'AA7F'
p692
tp693
sS'Phags-pa'
p694
(S'A840'
p695
S'A87F'
p696
tp697
sS'Dingbats'
p698
(S'2700'
p699
S'27BF'
p700
tp701
sS'Variation Selectors'
p702
(S'FE00'
p703
S'FE0F'
p704
tp705
sS'Linear B Ideograms'
p706
(S'10080'
p707
S'100FF'
p708
tp709
sS'Inscriptional Pahlavi'
p710
(S'10B60'
p711
S'10B7F'
p712
tp713
sS'Deseret'
p714
(S'10400'
p715
S'1044F'
p716
tp717
sS'Rejang'
p718
(S'A930'
p719
S'A95F'
p720
tp721
sS'Mathematical Operators'
p722
(S'2200'
p723
S'22FF'
p724
tp725
sS'General Punctuation'
p726
(S'2000'
p727
S'206F'
p728
tp729
sS'Balinese'
p730
(S'1B00'
p731
S'1B7F'
p732
tp733
sS'Lao'
p734
(S'0E80'
p735
S'0EFF'
p736
tp737
sS'Hanunoo'
p738
(S'1720'
p739
S'173F'
p740
tp741
sS'Currency Symbols'
p742
(S'20A0'
p743
S'20CF'
p744
tp745
sS'Combining Diacritical Marks'
p746
(S'0300'
p747
S'036F'
p748
tp749
sS'Hangul Jamo'
p750
(S'1100'
p751
S'11FF'
p752
tp753
sS'Miscellaneous Symbols and Arrows'
p754
(S'2B00'
p755
S'2BFF'
p756
tp757
sS'Lepcha'
p758
(S'1C00'
p759
S'1C4F'
p760
tp761
sS'Hangul Jamo Extended-B'
p762
(S'D7B0'
p763
S'D7FF'
p764
tp765
sS'Private Use Area'
p766
(S'E000'
p767
S'F8FF'
p768
tp769
sS'Transport And Map Symbols'
p770
(S'1F680'
p771
S'1F6FF'
p772
tp773
sS'Miscellaneous Mathematical Symbols-A'
p774
(S'27C0'
p775
S'27EF'
p776
tp777
sS'Miscellaneous Mathematical Symbols-B'
p778
(S'2980'
p779
S'29FF'
p780
tp781
sS'Sora Sompeng'
p782
(S'110D0'
p783
S'110FF'
p784
tp785
sS'Supplemental Mathematical Operators'
p786
(S'2A00'
p787
S'2AFF'
p788
tp789
sS'Alphabetic Presentation Forms'
p790
(S'FB00'
p791
S'FB4F'
p792
tp793
sS'Samaritan'
p794
(S'0800'
p795
S'083F'
p796
tp797
sS'Arrows'
p798
(S'2190'
p799
S'21FF'
p800
tp801
sS'Lisu'
p802
(S'A4D0'
p803
S'A4FF'
p804
tp805
sS'NKo'
p806
(S'07C0'
p807
S'07FF'
p808
tp809
sS'New Tai Lue'
p810
(S'1980'
p811
S'19DF'
p812
tp813
sS'Coptic'
p814
(S'2C80'
p815
S'2CFF'
p816
tp817
sS'Chakma'
p818
(S'11100'
p819
S'1114F'
p820
tp821
sS'Tai Tham'
p822
(S'1A20'
p823
S'1AAF'
p824
tp825
sS'Katakana'
p826
(S'30A0'
p827
S'30FF'
p828
tp829
sS'Bamum'
p830
(S'A6A0'
p831
S'A6FF'
p832
tp833
sS'Myanmar'
p834
(S'1000'
p835
S'109F'
p836
tp837
sS'Shavian'
p838
(S'10450'
p839
S'1047F'
p840
tp841
sS'Cuneiform Numbers and Punctuation'
p842
(S'12400'
p843
S'1247F'
p844
tp845
sS'Halfwidth and Fullwidth Forms'
p846
(S'FF00'
p847
S'FFEF'
p848
tp849
sS'Avestan'
p850
(S'10B00'
p851
S'10B3F'
p852
tp853
sS'Small Form Variants'
p854
(S'FE50'
p855
S'FE6F'
p856
tp857
sS'Hebrew'
p858
(S'0590'
p859
S'05FF'
p860
tp861
sS'Yi Radicals'
p862
(S'A490'
p863
S'A4CF'
p864
tp865
sS'Kayah Li'
p866
(S'A900'
p867
S'A92F'
p868
tp869
sS'Supplemental Arrows-B'
p870
(S'2900'
p871
S'297F'
p872
tp873
sS'Low Surrogates'
p874
(S'DC00'
p875
S'DFFF'
p876
tp877
sS'Takri'
p878
(S'11680'
p879
S'116CF'
p880
tp881
sS'Supplemental Arrows-A'
p882
(S'27F0'
p883
S'27FF'
p884
tp885
ssS'by_codepoint'
p886
(dp887
(g251
g252
tp888
g250
s(g311
g312
tp889
g310
s(g519
g520
tp890
g518
s(g607
g608
tp891
g606
s(g615
g616
tp892
g614
s(g175
g176
tp893
g174
s(g851
g852
tp894
g850
s(g87
g88
tp895
g86
s(g223
g224
tp896
g222
s(g307
g308
tp897
g306
s(g863
g864
tp898
g862
s(g783
g784
tp899
g782
s(g167
g168
tp900
g166
s(g331
g332
tp901
g330
s(g279
g280
tp902
g278
s(g807
g808
tp903
g806
s(g67
g68
tp904
g66
s(g335
g336
tp905
g334
s(g427
g428
tp906
g426
s(g291
g292
tp907
g290
s(g719
g720
tp908
g718
s(g831
g832
tp909
g830
s(g491
g492
tp910
g490
s(g303
g304
tp911
g302
s(g439
g440
tp912
g438
s(g123
g124
tp913
g122
s(g11
g12
tp914
g10
s(g603
g604
tp915
g602
s(g543
g544
tp916
g542
s(g39
g40
tp917
g38
s(g595
g596
tp918
g594
s(g579
g580
tp919
g578
s(g771
g772
tp920
g770
s(g871
g872
tp921
g870
s(g267
g268
tp922
g266
s(g147
g148
tp923
g146
s(g135
g136
tp924
g134
s(g767
g768
tp925
g766
s(g623
g624
tp926
g622
s(g599
g600
tp927
g598
s(g723
g724
tp928
g722
s(g231
g232
tp929
g230
s(g583
g584
tp930
g582
s(g775
g776
tp931
g774
s(g531
g532
tp932
g530
s(g27
g28
tp933
g26
s(g611
g612
tp934
g610
s(g79
g80
tp935
g78
s(g487
g488
tp936
g486
s(g171
g172
tp937
g170
s(g827
g828
tp938
g826
s(g295
g296
tp939
g294
s(g667
g668
tp940
g666
s(g115
g116
tp941
g114
s(g395
g396
tp942
g394
s(g679
g680
tp943
g678
s(g367
g368
tp944
g366
s(g663
g664
tp945
g662
s(g327
g328
tp946
g326
s(g443
g444
tp947
g442
s(g587
g588
tp948
g586
s(g779
g780
tp949
g778
s(g483
g484
tp950
g482
s(g19
g20
tp951
g18
s(g683
g684
tp952
g682
s(g839
g840
tp953
g838
s(g59
g60
tp954
g58
s(g731
g732
tp955
g730
s(g811
g812
tp956
g810
s(g127
g128
tp957
g126
s(g347
g348
tp958
g346
s(g31
g32
tp959
g30
s(g91
g92
tp960
g90
s(g423
g424
tp961
g422
s(g431
g432
tp962
g430
s(g415
g416
tp963
g414
s(g619
g620
tp964
g618
s(g255
g256
tp965
g254
s(g855
g856
tp966
g854
s(g471
g472
tp967
g470
s(g99
g100
tp968
g98
s(g515
g516
tp969
g514
s(g263
g264
tp970
g262
s(g547
g548
tp971
g546
s(g755
g756
tp972
g754
s(g399
g400
tp973
g398
s(g739
g740
tp974
g738
s(g151
g152
tp975
g150
s(g379
g380
tp976
g378
s(g179
g180
tp977
g178
s(g215
g216
tp978
g214
s(g143
g144
tp979
g142
s(g711
g712
tp980
g710
s(g239
g240
tp981
g238
s(g75
g76
tp982
g74
s(g703
g704
tp983
g702
s(g643
g644
tp984
g642
s(g355
g356
tp985
g354
s(g139
g140
tp986
g138
s(g227
g228
tp987
g226
s(g743
g744
tp988
g742
s(g559
g560
tp989
g558
s(g163
g164
tp990
g162
s(g103
g104
tp991
g102
s(g687
g688
tp992
g686
s(g867
g868
tp993
g866
s(g319
g320
tp994
g318
s(g675
g676
tp995
g674
s(g391
g392
tp996
g390
s(g803
g804
tp997
g802
s(g203
g204
tp998
g202
s(g283
g284
tp999
g282
s(g459
g460
tp1000
g458
s(g651
g652
tp1001
g650
s(g243
g244
tp1002
g242
s(g631
g632
tp1003
g630
s(g63
g64
tp1004
g62
s(g563
g564
tp1005
g562
s(g503
g504
tp1006
g502
s(g751
g752
tp1007
g750
s(g787
g788
tp1008
g786
s(g835
g836
tp1009
g834
s(g639
g640
tp1010
g638
s(g119
g120
tp1011
g118
s(g363
g364
tp1012
g362
s(g411
g412
tp1013
g410
s(g107
g108
tp1014
g106
s(g359
g360
tp1015
g358
s(g635
g636
tp1016
g634
s(g211
g212
tp1017
g210
s(g191
g192
tp1018
g190
s(g795
g796
tp1019
g794
s(g447
g448
tp1020
g446
s(g699
g700
tp1021
g698
s(g183
g184
tp1022
g182
s(g759
g760
tp1023
g758
s(g539
g540
tp1024
g538
s(g375
g376
tp1025
g374
s(g247
g248
tp1026
g246
s(g195
g196
tp1027
g194
s(g271
g272
tp1028
g270
s(g455
g456
tp1029
g454
s(g383
g384
tp1030
g382
s(g343
g344
tp1031
g342
s(g71
g72
tp1032
g70
s(g23
g24
tp1033
g22
s(g523
g524
tp1034
g522
s(g647
g648
tp1035
g646
s(g207
g208
tp1036
g206
s(g527
g528
tp1037
g526
s(g747
g748
tp1038
g746
s(g387
g388
tp1039
g386
s(g823
g824
tp1040
g822
s(g15
g16
tp1041
g14
s(g131
g132
tp1042
g130
s(g627
g628
tp1043
g626
s(g571
g572
tp1044
g570
s(g883
g884
tp1045
g882
s(g235
g236
tp1046
g234
s(g707
g708
tp1047
g706
s(g299
g300
tp1048
g298
s(g339
g340
tp1049
g338
s(g7
g8
tp1050
g6
s(g555
g556
tp1051
g554
s(g815
g816
tp1052
g814
s(g419
g420
tp1053
g418
s(g407
g408
tp1054
g406
s(g467
g468
tp1055
g466
s(g691
g692
tp1056
g690
s(g463
g464
tp1057
g462
s(g735
g736
tp1058
g734
s(g287
g288
tp1059
g286
s(g567
g568
tp1060
g566
s(g591
g592
tp1061
g590
s(g859
g860
tp1062
g858
s(g655
g656
tp1063
g654
s(g791
g792
tp1064
g790
s(g219
g220
tp1065
g218
s(g187
g188
tp1066
g186
s(g111
g112
tp1067
g110
s(g575
g576
tp1068
g574
s(g799
g800
tp1069
g798
s(g95
g96
tp1070
g94
s(g155
g156
tp1071
g154
s(g715
g716
tp1072
g714
s(g763
g764
tp1073
g762
s(g671
g672
tp1074
g670
s(g843
g844
tp1075
g842
s(g451
g452
tp1076
g450
s(g403
g404
tp1077
g402
s(g199
g200
tp1078
g198
s(g435
g436
tp1079
g434
s(g819
g820
tp1080
g818
s(g875
g876
tp1081
g874
s(g727
g728
tp1082
g726
s(g499
g500
tp1083
g498
s(g551
g552
tp1084
g550
s(g323
g324
tp1085
g322
s(g695
g696
tp1086
g694
s(g475
g476
tp1087
g474
s(g51
g52
tp1088
g50
s(g495
g496
tp1089
g494
s(g479
g480
tp1090
g478
s(g35
g36
tp1091
g34
s(g659
g660
tp1092
g658
s(g371
g372
tp1093
g370
s(g511
g512
tp1094
g510
s(g275
g276
tp1095
g274
s(g351
g352
tp1096
g350
s(g259
g260
tp1097
g258
s(g879
g880
tp1098
g878
s(g315
g316
tp1099
g314
s(g83
g84
tp1100
g82
s(g43
g44
tp1101
g42
s(g507
g508
tp1102
g506
s(g55
g56
tp1103
g54
s(g535
g536
tp1104
g534
s(g847
g848
tp1105
g846
s(g159
g160
tp1106
g158
s(g47
g48
tp1107
g46
ss.